target datalayout = "e-m:e-p270:32:32-p271:32:32-p272:64:64-i64:64-i128:128-f80:128-n8:16:32:64-S128"
target triple = "x86_64-unknown-linux-gnu"

%"class.icu_75::UObject" = type { ptr }
%"class.icu_75::Normalizer2Impl" = type { %"class.icu_75::UObject", i16, i16, i16, i16, i16, i16, i16, i16, i16, i16, i16, i16, ptr, ptr, ptr, ptr, %"struct.icu_75::UInitOnce", ptr }
%"struct.icu_75::UInitOnce" = type { %"struct.std::atomic", i32 }
%"struct.std::atomic" = type { %"struct.std::__atomic_base" }
%"struct.std::__atomic_base" = type { i32 }
%struct.UCPTrie = type { ptr, %union.UCPTrieData, i32, i32, i32, i16, i8, i8, i32, i16, i16, i32, i32 }
%union.UCPTrieData = type { ptr }

; Function Attrs: mustprogress nounwind uwtable
define linkonce_odr noundef ptr @_ZNK6icu_7515Normalizer2Impl10getMappingEt(ptr noundef nonnull align 8 dereferenceable(80) %this, i16 noundef zeroext %norm16) #2 comdat align 2 {
entry:
  %this.addr = alloca ptr, align 8
  %norm16.addr = alloca i16, align 2
  store ptr %this, ptr %this.addr, align 8
  store i16 %norm16, ptr %norm16.addr, align 2
  %this1 = load ptr, ptr %this.addr, align 8
  %extraData = getelementptr inbounds %"class.icu_75::Normalizer2Impl", ptr %this1, i32 0, i32 15
  %0 = load ptr, ptr %extraData, align 8
  %1 = load i16, ptr %norm16.addr, align 2
  %conv = zext i16 %1 to i32
  %shr = ashr i32 %conv, 1
  %idx.ext = sext i32 %shr to i64
  %add.ptr = getelementptr inbounds i16, ptr %0, i64 %idx.ext
  ret ptr %add.ptr
}

; Function Attrs: mustprogress nounwind uwtable
define linkonce_odr noundef ptr @_ZNK6icu_7515Normalizer2Impl31getCompositionsListForCompositeEt(ptr noundef nonnull align 8 dereferenceable(80) %this, i16 noundef zeroext %norm16) #2 comdat align 2 {
entry:
  %this.addr = alloca ptr, align 8
  %norm16.addr = alloca i16, align 2
  %list = alloca ptr, align 8
  store ptr %this, ptr %this.addr, align 8
  store i16 %norm16, ptr %norm16.addr, align 2
  %this1 = load ptr, ptr %this.addr, align 8
  %0 = load i16, ptr %norm16.addr, align 2
  %call = call noundef ptr @_ZNK6icu_7515Normalizer2Impl10getMappingEt(ptr noundef nonnull align 8 dereferenceable(80) %this1, i16 noundef zeroext %0)
  store ptr %call, ptr %list, align 8
  %1 = load ptr, ptr %list, align 8
  %add.ptr = getelementptr inbounds i16, ptr %1, i64 1
  %2 = load ptr, ptr %list, align 8
  %3 = load i16, ptr %2, align 2
  %conv = zext i16 %3 to i32
  %and = and i32 %conv, 31
  %idx.ext = sext i32 %and to i64
  %add.ptr2 = getelementptr inbounds i16, ptr %add.ptr, i64 %idx.ext
  ret ptr %add.ptr2
}

; Function Attrs: mustprogress uwtable
define linkonce_odr noundef zeroext i16 @_ZNK6icu_7515Normalizer2Impl12getRawNorm16Ei(ptr noundef nonnull align 8 dereferenceable(80) %this, i32 noundef %c) #0 comdat align 2 {
entry:
  %this.addr = alloca ptr, align 8
  %c.addr = alloca i32, align 4
  store ptr %this, ptr %this.addr, align 8
  store i32 %c, ptr %c.addr, align 4
  %this1 = load ptr, ptr %this.addr, align 8
  %normTrie = getelementptr inbounds %"class.icu_75::Normalizer2Impl", ptr %this1, i32 0, i32 13
  %0 = load ptr, ptr %normTrie, align 8
  %data = getelementptr inbounds %struct.UCPTrie, ptr %0, i32 0, i32 1
  %1 = load ptr, ptr %data, align 8
  %2 = load i32, ptr %c.addr, align 4
  %cmp = icmp ule i32 %2, 65535
  br i1 %cmp, label %cond.true, label %cond.false

cond.true:                                        ; preds = %entry
  %normTrie2 = getelementptr inbounds %"class.icu_75::Normalizer2Impl", ptr %this1, i32 0, i32 13
  %3 = load ptr, ptr %normTrie2, align 8
  %index = getelementptr inbounds %struct.UCPTrie, ptr %3, i32 0, i32 0
  %4 = load ptr, ptr %index, align 8
  %5 = load i32, ptr %c.addr, align 4
  %shr = ashr i32 %5, 6
  %idxprom = sext i32 %shr to i64
  %arrayidx = getelementptr inbounds i16, ptr %4, i64 %idxprom
  %6 = load i16, ptr %arrayidx, align 2
  %conv = zext i16 %6 to i32
  %7 = load i32, ptr %c.addr, align 4
  %and = and i32 %7, 63
  %add = add nsw i32 %conv, %and
  br label %cond.end17

cond.false:                                       ; preds = %entry
  %8 = load i32, ptr %c.addr, align 4
  %cmp3 = icmp ule i32 %8, 1114111
  br i1 %cmp3, label %cond.true4, label %cond.false11

cond.true4:                                       ; preds = %cond.false
  %9 = load i32, ptr %c.addr, align 4
  %normTrie5 = getelementptr inbounds %"class.icu_75::Normalizer2Impl", ptr %this1, i32 0, i32 13
  %10 = load ptr, ptr %normTrie5, align 8
  %highStart = getelementptr inbounds %struct.UCPTrie, ptr %10, i32 0, i32 4
  %11 = load i32, ptr %highStart, align 8
  %cmp6 = icmp sge i32 %9, %11
  br i1 %cmp6, label %cond.true7, label %cond.false9

cond.true7:                                       ; preds = %cond.true4
  %normTrie8 = getelementptr inbounds %"class.icu_75::Normalizer2Impl", ptr %this1, i32 0, i32 13
  %12 = load ptr, ptr %normTrie8, align 8
  %dataLength = getelementptr inbounds %struct.UCPTrie, ptr %12, i32 0, i32 3
  %13 = load i32, ptr %dataLength, align 4
  %sub = sub nsw i32 %13, 2
  br label %cond.end

cond.false9:                                      ; preds = %cond.true4
  %normTrie10 = getelementptr inbounds %"class.icu_75::Normalizer2Impl", ptr %this1, i32 0, i32 13
  %14 = load ptr, ptr %normTrie10, align 8
  %15 = load i32, ptr %c.addr, align 4
  %call = call i32 @ucptrie_internalSmallIndex_75(ptr noundef %14, i32 noundef %15)
  br label %cond.end

cond.end:                                         ; preds = %cond.false9, %cond.true7
  %cond = phi i32 [ %sub, %cond.true7 ], [ %call, %cond.false9 ]
  br label %cond.end15

cond.false11:                                     ; preds = %cond.false
  %normTrie12 = getelementptr inbounds %"class.icu_75::Normalizer2Impl", ptr %this1, i32 0, i32 13
  %16 = load ptr, ptr %normTrie12, align 8
  %dataLength13 = getelementptr inbounds %struct.UCPTrie, ptr %16, i32 0, i32 3
  %17 = load i32, ptr %dataLength13, align 4
  %sub14 = sub nsw i32 %17, 1
  br label %cond.end15

cond.end15:                                       ; preds = %cond.false11, %cond.end
  %cond16 = phi i32 [ %cond, %cond.end ], [ %sub14, %cond.false11 ]
  br label %cond.end17

cond.end17:                                       ; preds = %cond.end15, %cond.true
  %cond18 = phi i32 [ %add, %cond.true ], [ %cond16, %cond.end15 ]
  %idxprom19 = sext i32 %cond18 to i64
  %arrayidx20 = getelementptr inbounds i16, ptr %1, i64 %idxprom19
  %18 = load i16, ptr %arrayidx20, align 2
  ret i16 %18
}

; Function Attrs: mustprogress uwtable
define void @_ZNK6icu_7515Normalizer2Impl13addCompositesEPKtRNS_10UnicodeSetE(ptr noundef nonnull align 8 dereferenceable(80) %this, ptr noundef %list, ptr noundef nonnull align 8 dereferenceable(200) %set) #0 align 2 {
entry:
  %this.addr = alloca ptr, align 8
  %list.addr = alloca ptr, align 8
  %set.addr = alloca ptr, align 8
  %firstUnit = alloca i16, align 2
  %compositeAndFwd = alloca i32, align 4
  %composite = alloca i32, align 4
  store ptr %this, ptr %this.addr, align 8
  store ptr %list, ptr %list.addr, align 8
  store ptr %set, ptr %set.addr, align 8
  %this1 = load ptr, ptr %this.addr, align 8
  br label %do.body

do.body:                                          ; preds = %do.cond, %entry
  %0 = load ptr, ptr %list.addr, align 8
  %1 = load i16, ptr %0, align 2
  store i16 %1, ptr %firstUnit, align 2
  %2 = load i16, ptr %firstUnit, align 2
  %conv = zext i16 %2 to i32
  %and = and i32 %conv, 1
  %cmp = icmp eq i32 %and, 0
  br i1 %cmp, label %if.then, label %if.else

if.then:                                          ; preds = %do.body
  %3 = load ptr, ptr %list.addr, align 8
  %arrayidx = getelementptr inbounds i16, ptr %3, i64 1
  %4 = load i16, ptr %arrayidx, align 2
  %conv2 = zext i16 %4 to i32
  store i32 %conv2, ptr %compositeAndFwd, align 4
  %5 = load ptr, ptr %list.addr, align 8
  %add.ptr = getelementptr inbounds i16, ptr %5, i64 2
  store ptr %add.ptr, ptr %list.addr, align 8
  br label %if.end

if.else:                                          ; preds = %do.body
  %6 = load ptr, ptr %list.addr, align 8
  %arrayidx3 = getelementptr inbounds i16, ptr %6, i64 1
  %7 = load i16, ptr %arrayidx3, align 2
  %conv4 = zext i16 %7 to i32
  %and5 = and i32 %conv4, -65473
  %shl = shl i32 %and5, 16
  %8 = load ptr, ptr %list.addr, align 8
  %arrayidx6 = getelementptr inbounds i16, ptr %8, i64 2
  %9 = load i16, ptr %arrayidx6, align 2
  %conv7 = zext i16 %9 to i32
  %or = or i32 %shl, %conv7
  store i32 %or, ptr %compositeAndFwd, align 4
  %10 = load ptr, ptr %list.addr, align 8
  %add.ptr8 = getelementptr inbounds i16, ptr %10, i64 3
  store ptr %add.ptr8, ptr %list.addr, align 8
  br label %if.end

if.end:                                           ; preds = %if.else, %if.then
  %11 = load i32, ptr %compositeAndFwd, align 4
  %shr = ashr i32 %11, 1
  store i32 %shr, ptr %composite, align 4
  %12 = load i32, ptr %compositeAndFwd, align 4
  %and9 = and i32 %12, 1
  %cmp10 = icmp ne i32 %and9, 0
  br i1 %cmp10, label %if.then11, label %if.end13

if.then11:                                        ; preds = %if.end
  %13 = load i32, ptr %composite, align 4
  %call = call noundef zeroext i16 @_ZNK6icu_7515Normalizer2Impl12getRawNorm16Ei(ptr noundef nonnull align 8 dereferenceable(80) %this1, i32 noundef %13)
  %call12 = call noundef ptr @_ZNK6icu_7515Normalizer2Impl31getCompositionsListForCompositeEt(ptr noundef nonnull align 8 dereferenceable(80) %this1, i16 noundef zeroext %call)
  %14 = load ptr, ptr %set.addr, align 8
  call void @_ZNK6icu_7515Normalizer2Impl13addCompositesEPKtRNS_10UnicodeSetE(ptr noundef nonnull align 8 dereferenceable(80) %this1, ptr noundef %call12, ptr noundef nonnull align 8 dereferenceable(200) %14)
  br label %if.end13

if.end13:                                         ; preds = %if.then11, %if.end
  %15 = load ptr, ptr %set.addr, align 8
  %16 = load i32, ptr %composite, align 4
  %call14 = call noundef nonnull align 8 dereferenceable(200) ptr @_ZN6icu_7510UnicodeSet3addEi(ptr noundef nonnull align 8 dereferenceable(200) %15, i32 noundef %16)
  br label %do.cond

do.cond:                                          ; preds = %if.end13
  %17 = load i16, ptr %firstUnit, align 2
  %conv15 = zext i16 %17 to i32
  %and16 = and i32 %conv15, 32768
  %cmp17 = icmp eq i32 %and16, 0
  br i1 %cmp17, label %do.body, label %do.end, !llvm.loop !26

do.end:                                           ; preds = %do.cond
  ret void
}