; Function Attrs: mustprogress uwtable
define void @_ZNK6icu_7515Normalizer2Impl13addCompositesEPKtRNS_10UnicodeSetE(ptr nocapture noundef nonnull readonly align 8 dereferenceable(80) %this, ptr nocapture noundef readonly %list, ptr noundef nonnull align 8 dereferenceable(200) %set) local_unnamed_addr #0 align 2 {
entry:
  %normTrie.i = getelementptr inbounds i8, ptr %this, i64 32
  %extraData.i.i = getelementptr inbounds i8, ptr %this, i64 48
  br label %do.body

do.body:                                          ; preds = %if.end13, %entry
  %list.addr.0 = phi ptr [ %list, %entry ], [ %add.ptr8, %if.end13 ]
  %0 = load i16, ptr %list.addr.0, align 2
  %1 = and i16 %0, 1
  %cmp = icmp eq i16 %1, 0
  %arrayidx = getelementptr inbounds i8, ptr %list.addr.0, i64 2
  %2 = load i16, ptr %arrayidx, align 2
  br i1 %cmp, label %if.then, label %if.else

if.then:                                          ; preds = %do.body
  %conv2 = zext i16 %2 to i32
  br label %if.end

if.else:                                          ; preds = %do.body
  %3 = and i16 %2, 63
  %and5 = zext nneg i16 %3 to i32
  %shl = shl nuw nsw i32 %and5, 16
  %arrayidx6 = getelementptr inbounds i8, ptr %list.addr.0, i64 4
  %4 = load i16, ptr %arrayidx6, align 2
  %conv7 = zext i16 %4 to i32
  %or = or disjoint i32 %shl, %conv7
  br label %if.end

if.end:                                           ; preds = %if.else, %if.then
  %.sink = phi i64 [ 6, %if.else ], [ 4, %if.then ]
  %compositeAndFwd.0 = phi i32 [ %or, %if.else ], [ %conv2, %if.then ]
  %add.ptr8 = getelementptr inbounds i8, ptr %list.addr.0, i64 %.sink
  %shr = lshr i32 %compositeAndFwd.0, 1
  %and9 = and i32 %compositeAndFwd.0, 1
  %cmp10.not = icmp eq i32 %and9, 0
  br i1 %cmp10.not, label %if.end13, label %if.then11

if.then11:                                        ; preds = %if.end
  %5 = load ptr, ptr %normTrie.i, align 8
  %data.i = getelementptr inbounds i8, ptr %5, i64 8
  %6 = load ptr, ptr %data.i, align 8
  %cmp.i = icmp ult i32 %compositeAndFwd.0, 131072
  br i1 %cmp.i, label %cond.true.i, label %cond.false.i

cond.true.i:                                      ; preds = %if.then11
  %7 = load ptr, ptr %5, align 8
  %shr.i = lshr i32 %compositeAndFwd.0, 7
  %idxprom.i = zext nneg i32 %shr.i to i64
  %arrayidx.i = getelementptr inbounds i16, ptr %7, i64 %idxprom.i
  %8 = load i16, ptr %arrayidx.i, align 2
  %conv.i = zext i16 %8 to i32
  %and.i = and i32 %shr, 63
  %add.i = add nuw nsw i32 %and.i, %conv.i
  br label %_ZNK6icu_7515Normalizer2Impl12getRawNorm16Ei.exit

cond.false.i:                                     ; preds = %if.then11
  %cmp3.i = icmp ult i32 %compositeAndFwd.0, 2228224
  br i1 %cmp3.i, label %cond.true4.i, label %cond.false11.i

cond.true4.i:                                     ; preds = %cond.false.i
  %highStart.i = getelementptr inbounds i8, ptr %5, i64 24
  %9 = load i32, ptr %highStart.i, align 8
  %cmp6.not.i = icmp sgt i32 %9, %shr
  br i1 %cmp6.not.i, label %cond.false9.i, label %cond.true7.i

cond.true7.i:                                     ; preds = %cond.true4.i
  %dataLength.i = getelementptr inbounds i8, ptr %5, i64 20
  %10 = load i32, ptr %dataLength.i, align 4
  %sub.i = add nsw i32 %10, -2
  br label %_ZNK6icu_7515Normalizer2Impl12getRawNorm16Ei.exit

cond.false9.i:                                    ; preds = %cond.true4.i
  %call.i = tail call i32 @ucptrie_internalSmallIndex_75(ptr noundef nonnull %5, i32 noundef %shr)
  br label %_ZNK6icu_7515Normalizer2Impl12getRawNorm16Ei.exit

cond.false11.i:                                   ; preds = %cond.false.i
  %dataLength13.i = getelementptr inbounds i8, ptr %5, i64 20
  %11 = load i32, ptr %dataLength13.i, align 4
  %sub14.i = add nsw i32 %11, -1
  br label %_ZNK6icu_7515Normalizer2Impl12getRawNorm16Ei.exit

_ZNK6icu_7515Normalizer2Impl12getRawNorm16Ei.exit: ; preds = %cond.true.i, %cond.true7.i, %cond.false9.i, %cond.false11.i
  %cond18.i = phi i32 [ %add.i, %cond.true.i ], [ %sub14.i, %cond.false11.i ], [ %sub.i, %cond.true7.i ], [ %call.i, %cond.false9.i ]
  %idxprom19.i = sext i32 %cond18.i to i64
  %arrayidx20.i = getelementptr inbounds i16, ptr %6, i64 %idxprom19.i
  %12 = load i16, ptr %arrayidx20.i, align 2
  %13 = load ptr, ptr %extraData.i.i, align 8
  %14 = lshr i16 %12, 1
  %idx.ext.i.i = zext nneg i16 %14 to i64
  %add.ptr.i.i = getelementptr inbounds i16, ptr %13, i64 %idx.ext.i.i
  %add.ptr.i = getelementptr inbounds i8, ptr %add.ptr.i.i, i64 2
  %15 = load i16, ptr %add.ptr.i.i, align 2
  %16 = and i16 %15, 31
  %idx.ext.i = zext nneg i16 %16 to i64
  %add.ptr2.i = getelementptr inbounds i16, ptr %add.ptr.i, i64 %idx.ext.i
  tail call void @_ZNK6icu_7515Normalizer2Impl13addCompositesEPKtRNS_10UnicodeSetE(ptr noundef nonnull align 8 dereferenceable(80) %this, ptr noundef nonnull %add.ptr2.i, ptr noundef nonnull align 8 dereferenceable(200) %set)
  br label %if.end13

if.end13:                                         ; preds = %_ZNK6icu_7515Normalizer2Impl12getRawNorm16Ei.exit, %if.end
  %call14 = tail call noundef nonnull align 8 dereferenceable(200) ptr @_ZN6icu_7510UnicodeSet3addEi(ptr noundef nonnull align 8 dereferenceable(200) %set, i32 noundef %shr)
  %cmp17 = icmp sgt i16 %0, -1
  br i1 %cmp17, label %do.body, label %do.end, !llvm.loop !28

do.end:                                           ; preds = %if.end13
  ret void
}